; Function Attrs: mustprogress noreturn uwtable
define hidden void @_ZN4cvc58internal19RealAlgebraicNumberC2ERKSt6vectorIlSaIlEEll(ptr noundef nonnull align 8 dereferenceable(32) %0, ptr nonnull readnone align 1 captures(none) %1, i64 %2, i64 %3) unnamed_addr #1 align 2 personality ptr @__gxx_personality_v0 {
  %5 = alloca %"class.cvc5::internal::FatalStream", align 1
  tail call void @__gmpq_init(ptr noundef nonnull align 8 dereferenceable(32) %0)
  %6 = getelementptr inbounds nuw i8, ptr %0, i64 4
  store i32 0, ptr %6, align 4, !tbaa !3
  invoke void @__gmpq_canonicalize(ptr noundef nonnull align 8 dereferenceable(32) %0)
          to label %_ZN4cvc58internal8RationalC2Ev.exit unwind label %7

7:                                                ; preds = %4
  %8 = landingpad { ptr, i32 }
          cleanup
  invoke void @__gmpq_clear(ptr noundef nonnull align 8 dereferenceable(32) %0)
          to label %common.resume unwind label %9

9:                                                ; preds = %7
  %10 = landingpad { ptr, i32 }
          catch ptr null
  %11 = extractvalue { ptr, i32 } %10, 0
  tail call void @__clang_call_terminate(ptr %11) #19
  unreachable

common.resume:                                    ; preds = %18, %7
  %common.resume.op = phi { ptr, i32 } [ %8, %7 ], [ %19, %18 ]
  resume { ptr, i32 } %common.resume.op

_ZN4cvc58internal8RationalC2Ev.exit:              ; preds = %4
  call void @llvm.lifetime.start.p0(i64 1, ptr nonnull %5) #20
  invoke void @_ZN4cvc58internal11FatalStreamC1EPKcS3_i(ptr noundef nonnull align 1 dereferenceable(1) %5, ptr noundef nonnull @__PRETTY_FUNCTION__._ZN4cvc58internal19RealAlgebraicNumberC2ERKSt6vectorIlSaIlEEll, ptr noundef nonnull @.str, i32 noundef 86)
          to label %12 unwind label %18

12:                                               ; preds = %_ZN4cvc58internal8RationalC2Ev.exit
  %13 = invoke noundef nonnull align 8 dereferenceable(8) ptr @_ZN4cvc58internal11FatalStream6streamEv(ptr noundef nonnull align 1 dereferenceable(1) %5)
          to label %14 unwind label %23

14:                                               ; preds = %12
  %15 = invoke noundef nonnull align 8 dereferenceable(8) ptr @_ZSt16__ostream_insertIcSt11char_traitsIcEERSt13basic_ostreamIT_T0_ES6_PKS3_l(ptr noundef nonnull align 8 dereferenceable(8) %13, ptr noundef nonnull @.str.1, i64 noundef 25)
          to label %_ZStlsISt11char_traitsIcEERSt13basic_ostreamIcT_ES5_PKc.exit unwind label %23

_ZStlsISt11char_traitsIcEERSt13basic_ostreamIcT_ES5_PKc.exit: ; preds = %14
  %16 = invoke noundef nonnull align 8 dereferenceable(8) ptr @_ZStlsISt11char_traitsIcEERSt13basic_ostreamIcT_ES5_PKc(ptr noundef nonnull align 8 dereferenceable(8) %13, ptr noundef nonnull @.str.2)
          to label %17 unwind label %23

17:                                               ; preds = %_ZStlsISt11char_traitsIcEERSt13basic_ostreamIcT_ES5_PKc.exit
  call void @_ZN4cvc58internal11FatalStreamD1Ev(ptr noundef nonnull align 1 dereferenceable(1) %5) #19
  unreachable

18:                                               ; preds = %_ZN4cvc58internal8RationalC2Ev.exit
  %19 = landingpad { ptr, i32 }
          cleanup
  call void @llvm.lifetime.end.p0(i64 1, ptr nonnull %5) #20
  invoke void @__gmpq_clear(ptr noundef nonnull align 8 dereferenceable(32) %0)
          to label %common.resume unwind label %20

20:                                               ; preds = %18
  %21 = landingpad { ptr, i32 }
          catch ptr null
  %22 = extractvalue { ptr, i32 } %21, 0
  call void @__clang_call_terminate(ptr %22) #19
  unreachable

23:                                               ; preds = %14, %_ZStlsISt11char_traitsIcEERSt13basic_ostreamIcT_ES5_PKc.exit, %12
  %24 = landingpad { ptr, i32 }
          cleanup
  call void @_ZN4cvc58internal11FatalStreamD1Ev(ptr noundef nonnull align 1 dereferenceable(1) %5) #19
  unreachable
}